target datalayout = "e-m:e-p270:32:32-p271:32:32-p272:64:64-i64:64-i128:128-f80:128-n8:16:32:64-S128"
target triple = "x86_64-unknown-linux-gnu"

%struct.SemihostingConsole = type { %struct.CharBackend, ptr, ptr, i8, %struct.Fifo8 }
%struct.CharBackend = type { ptr, ptr, ptr, ptr, ptr, ptr, i32, i32 }
%struct.Fifo8 = type { ptr, i32, i32, i32 }
%struct.CPUState = type { %struct.DeviceState, ptr, i32, i32, ptr, i32, i8, i8, ptr, i8, i8, i8, i8, i8, i8, i8, i8, i32, i32, i32, i32, i64, i64, i64, [1 x %struct.__jmp_buf_tag], %struct.QemuMutex, %struct.anon, ptr, i32, ptr, ptr, ptr, ptr, i32, i32, %union.anon, %union.anon.0, %union.anon.1, ptr, ptr, i64, i32, ptr, ptr, ptr, i32, i64, i32, %struct.QemuLockCnt, [1 x i64], ptr, i32, i32, i32, i32, i32, ptr, i8, i8, i64, i8, i8, ptr, [8 x i8], [0 x i8], %struct.CPUNegativeOffsetState }
%struct.DeviceState = type { %struct.Object, ptr, ptr, i8, i8, i64, ptr, i32, i8, ptr, %struct.NamedGPIOListHead, %struct.NamedClockListHead, %struct.BusStateHead, i32, i32, i32, %struct.ResettableState, ptr, %struct.MemReentrancyGuard }
%struct.Object = type { ptr, ptr, ptr, i32, ptr }
%struct.NamedGPIOListHead = type { ptr }
%struct.NamedClockListHead = type { ptr }
%struct.BusStateHead = type { ptr }
%struct.ResettableState = type { i32, i8, i8 }
%struct.MemReentrancyGuard = type { i8 }
%struct.__jmp_buf_tag = type { [8 x i64], i32, %struct.__sigset_t }
%struct.__sigset_t = type { [16 x i64] }
%struct.QemuMutex = type { %union.pthread_mutex_t, i8 }
%union.pthread_mutex_t = type { %struct.__pthread_mutex_s }
%struct.__pthread_mutex_s = type { i32, i32, i32, i32, i32, i16, i16, %struct.__pthread_internal_list }
%struct.__pthread_internal_list = type { ptr, ptr }
%struct.anon = type { ptr, ptr }
%union.anon = type { %struct.QTailQLink }
%struct.QTailQLink = type { ptr, ptr }
%union.anon.0 = type { %struct.QTailQLink }
%union.anon.1 = type { %struct.QTailQLink }
%struct.QemuLockCnt = type { i32 }
%struct.CPUNegativeOffsetState = type { %struct.CPUTLB, %union.IcountDecr, i8, [11 x i8] }
%struct.CPUTLB = type { %struct.CPUTLBCommon, [16 x %struct.CPUTLBDesc], [16 x %struct.CPUTLBDescFast] }
%struct.CPUTLBCommon = type { %struct.QemuSpin, i16, i64, i64, i64 }
%struct.QemuSpin = type { i32 }
%struct.CPUTLBDesc = type { i64, i64, i64, i64, i64, i64, [8 x %union.CPUTLBEntry], [8 x %struct.CPUTLBEntryFull], ptr }
%union.CPUTLBEntry = type { %struct.anon.2 }
%struct.anon.2 = type { i64, i64, i64, i64 }
%struct.CPUTLBEntryFull = type { i64, i64, %struct.MemTxAttrs, i8, i8, [3 x i8], %union.anon.3 }
%struct.MemTxAttrs = type { i32 }
%union.anon.3 = type { %struct.anon.4 }
%struct.anon.4 = type { i8, i8, i8 }
%struct.CPUTLBDescFast = type { i64, ptr }
%union.IcountDecr = type { i32 }

@console = internal global %struct.SemihostingConsole zeroinitializer, align 8
@.str = private unnamed_addr constant [30 x i8] c"../qemu/semihosting/console.c\00", align 1
@.str.1 = private unnamed_addr constant [29 x i8] c"qemu_mutex_iothread_locked()\00", align 1
@__func__.qemu_semihosting_console_block_until_ready = private unnamed_addr constant [43 x i8] c"qemu_semihosting_console_block_until_ready\00", align 1

; Function Attrs: nounwind sspstrong uwtable
define dso_local void @qemu_semihosting_console_block_until_ready(ptr noundef %cs) #0 {
entry:
  %cs.addr = alloca ptr, align 8
  %c = alloca ptr, align 8
  store ptr %cs, ptr %cs.addr, align 8
  store ptr @console, ptr %c, align 8
  br label %do.body

do.body:                                          ; preds = %entry
  %call = call zeroext i1 @qemu_mutex_iothread_locked()
  br i1 %call, label %if.then, label %if.else

if.then:                                          ; preds = %do.body
  br label %if.end

if.else:                                          ; preds = %do.body
  call void @g_assertion_message_expr(ptr noundef null, ptr noundef @.str, i32 noundef 81, ptr noundef @__func__.qemu_semihosting_console_block_until_ready, ptr noundef @.str.1) #3
  unreachable

if.end:                                           ; preds = %if.then
  br label %do.end

do.end:                                           ; preds = %if.end
  %0 = load ptr, ptr %c, align 8
  %fifo = getelementptr inbounds %struct.SemihostingConsole, ptr %0, i32 0, i32 4
  %call1 = call zeroext i1 @fifo8_is_empty(ptr noundef %fifo)
  br i1 %call1, label %if.then2, label %if.end5

if.then2:                                         ; preds = %do.end
  %1 = load ptr, ptr %c, align 8
  %sleeping_cpus = getelementptr inbounds %struct.SemihostingConsole, ptr %1, i32 0, i32 2
  %2 = load ptr, ptr %sleeping_cpus, align 8
  %3 = load ptr, ptr %cs.addr, align 8
  %call3 = call ptr @g_slist_prepend(ptr noundef %2, ptr noundef %3)
  %4 = load ptr, ptr %c, align 8
  %sleeping_cpus4 = getelementptr inbounds %struct.SemihostingConsole, ptr %4, i32 0, i32 2
  store ptr %call3, ptr %sleeping_cpus4, align 8
  %5 = load ptr, ptr %cs.addr, align 8
  %halted = getelementptr inbounds %struct.CPUState, ptr %5, i32 0, i32 54
  store i32 1, ptr %halted, align 4
  %6 = load ptr, ptr %cs.addr, align 8
  %exception_index = getelementptr inbounds %struct.CPUState, ptr %6, i32 0, i32 55
  store i32 65539, ptr %exception_index, align 8
  %7 = load ptr, ptr %cs.addr, align 8
  call void @cpu_loop_exit(ptr noundef %7) #3
  unreachable

if.end5:                                          ; preds = %do.end
  ret void
}

; Function Attrs: nounwind sspstrong uwtable
define dso_local i32 @qemu_semihosting_console_read(ptr noundef %cs, ptr noundef %buf, i32 noundef %len) #0 {
entry:
  %cs.addr = alloca ptr, align 8
  %buf.addr = alloca ptr, align 8
  %len.addr = alloca i32, align 4
  %c = alloca ptr, align 8
  %ret = alloca i32, align 4
  store ptr %cs, ptr %cs.addr, align 8
  store ptr %buf, ptr %buf.addr, align 8
  store i32 %len, ptr %len.addr, align 4
  store ptr @console, ptr %c, align 8
  store i32 0, ptr %ret, align 4
  %0 = load ptr, ptr %cs.addr, align 8
  call void @qemu_semihosting_console_block_until_ready(ptr noundef %0)
  br label %do.body

do.body:                                          ; preds = %land.end, %entry
  %1 = load ptr, ptr %c, align 8
  %fifo = getelementptr inbounds %struct.SemihostingConsole, ptr %1, i32 0, i32 4
  %call = call zeroext i8 @fifo8_pop(ptr noundef %fifo)
  %2 = load ptr, ptr %buf.addr, align 8
  %3 = load i32, ptr %ret, align 4
  %idx.ext = sext i32 %3 to i64
  %add.ptr = getelementptr i8, ptr %2, i64 %idx.ext
  store i8 %call, ptr %add.ptr, align 1
  %4 = load i32, ptr %ret, align 4
  %inc = add i32 %4, 1
  store i32 %inc, ptr %ret, align 4
  br label %do.cond

do.cond:                                          ; preds = %do.body
  %5 = load i32, ptr %ret, align 4
  %6 = load i32, ptr %len.addr, align 4
  %cmp = icmp slt i32 %5, %6
  br i1 %cmp, label %land.rhs, label %land.end

land.rhs:                                         ; preds = %do.cond
  %7 = load ptr, ptr %c, align 8
  %fifo1 = getelementptr inbounds %struct.SemihostingConsole, ptr %7, i32 0, i32 4
  %call2 = call zeroext i1 @fifo8_is_empty(ptr noundef %fifo1)
  %lnot = xor i1 %call2, true
  br label %land.end

land.end:                                         ; preds = %land.rhs, %do.cond
  %8 = phi i1 [ false, %do.cond ], [ %lnot, %land.rhs ]
  br i1 %8, label %do.body, label %do.end, !llvm.loop !5

do.end:                                           ; preds = %land.end
  %9 = load i32, ptr %ret, align 4
  ret i32 %9
}