; Function Attrs: nounwind sspstrong uwtable
define dso_local i32 @qemu_semihosting_console_read(ptr noundef %cs, ptr noundef writeonly captures(none) %buf, i32 noundef %len) local_unnamed_addr #0 {
entry:
  %call.i = tail call zeroext i1 @qemu_mutex_iothread_locked() #5
  br i1 %call.i, label %do.end.i, label %if.else.i

if.else.i:                                        ; preds = %entry
  tail call void @g_assertion_message_expr(ptr noundef null, ptr noundef nonnull @.str, i32 noundef 81, ptr noundef nonnull @__func__.qemu_semihosting_console_block_until_ready, ptr noundef nonnull @.str.1) #6
  unreachable

do.end.i:                                         ; preds = %entry
  %call1.i = tail call zeroext i1 @fifo8_is_empty(ptr noundef nonnull getelementptr inbounds nuw (i8, ptr @console, i64 80)) #5
  br i1 %call1.i, label %if.then2.i, label %do.body.preheader

do.body.preheader:                                ; preds = %do.end.i
  %smax = tail call i32 @llvm.smax.i32(i32 %len, i32 1)
  %0 = add nsw i32 %smax, -1
  %wide.trip.count = zext nneg i32 %0 to i64
  br label %do.body

if.then2.i:                                       ; preds = %do.end.i
  %1 = load ptr, ptr getelementptr inbounds nuw (i8, ptr @console, i64 64), align 8
  %call3.i = tail call ptr @g_slist_prepend(ptr noundef %1, ptr noundef %cs) #5
  store ptr %call3.i, ptr getelementptr inbounds nuw (i8, ptr @console, i64 64), align 8
  %halted.i = getelementptr inbounds nuw i8, ptr %cs, i64 724
  store i32 1, ptr %halted.i, align 4
  %exception_index.i = getelementptr inbounds nuw i8, ptr %cs, i64 728
  store i32 65539, ptr %exception_index.i, align 8
  tail call void @cpu_loop_exit(ptr noundef %cs) #6
  unreachable

do.body:                                          ; preds = %do.body.preheader, %land.rhs
  %indvars.iv = phi i64 [ 0, %do.body.preheader ], [ %indvars.iv.next, %land.rhs ]
  %call = tail call zeroext i8 @fifo8_pop(ptr noundef nonnull getelementptr inbounds nuw (i8, ptr @console, i64 80)) #5
  %add.ptr = getelementptr i8, ptr %buf, i64 %indvars.iv
  store i8 %call, ptr %add.ptr, align 1
  %exitcond.not = icmp eq i64 %indvars.iv, %wide.trip.count
  br i1 %exitcond.not, label %do.end, label %land.rhs

land.rhs:                                         ; preds = %do.body
  %indvars.iv.next = add nuw nsw i64 %indvars.iv, 1
  %call2 = tail call zeroext i1 @fifo8_is_empty(ptr noundef nonnull getelementptr inbounds nuw (i8, ptr @console, i64 80)) #5
  br i1 %call2, label %do.end.split.loop.exit6, label %do.body, !llvm.loop !5

do.end.split.loop.exit6:                          ; preds = %land.rhs
  %2 = trunc nuw nsw i64 %indvars.iv.next to i32
  br label %do.end

do.end:                                           ; preds = %do.body, %do.end.split.loop.exit6
  %inc.lcssa = phi i32 [ %2, %do.end.split.loop.exit6 ], [ %smax, %do.body ]
  ret i32 %inc.lcssa
}